(dp0
F231.87
(dp1
S'rel_gravity'
p2
cnumpy.core.multiarray
_reconstruct
p3
(cnumpy
ndarray
p4
(I0
tp5
S'b'
p6
tp7
Rp8
(I1
(I13
tp9
cnumpy
dtype
p10
(S'f8'
p11
I0
I1
tp12
Rp13
(I3
S'<'
p14
NNNI-1
I-1
I0
tp15
bI00
S'f\x99\x08A8\xe1\xe1?\xe9^5\x0bR\xb4\xf6?\xd2\x92\xd2\xb9\x1f\xb4\x16@\xdd\xa4\xcc\xcd\xb9\x0f\x17@\x00\\O\xcb\xde\xa0\x15@\xa2.\xde6oS\x02@<\xef\x1aScq\x00@B2\x1f\x9c\xdf\x18\x0c@\xac\x96\x06\x9b\x10)\x00@]\x99\\\xeb\x1ev\x08@o"om\xb0\x85\x05@\xc0\xbf]\x06R\x9f\xfd?\xa7"\xab\x08\xe0?\xfb?'
p16
tp17
bsS'rel_rot_stats'
p18
(dp19
S'std'
p20
F33.824403774865786
sS'min'
p21
F46.094785300502394
sS'max'
p22
F175.81085023973748
sS'rmse'
p23
F114.79348741099665
sS'median'
p24
F100.40842579531653
sS'num_samples'
p25
I13
sS'mean'
p26
F109.6971032491446
ssS'rel_trans_perc'
p27
g3
(g4
(I0
tp28
g6
tp29
Rp30
(I1
(I13
tp31
g13
I00
S'\xa0\x90\xd0\xf1\x1e\x91P@ T\xe0\xd6\x9bUM@x\xd8\xcd\xfc\xbc\xe2K@\xbe\x027\x8e\'\xd1K@\xec\x0c\x85\xec\x97\x1cM@\xb0\xd0x\xcav\x1aR@\xdd\xd8zH\xfd\xb9S@\xb8\xb1x"\xe4hV@G\xdb\x03P1\x8aU@\xa12\x88\x02iNT@\x84\xb7\x0e\xae\x1efR@\xd9\x08DQ\xa0\'R@\n\xf7\xbd\x17<WS@'
p32
tp33
bsS'rel_yaw'
p34
g3
(g4
(I0
tp35
g6
tp36
Rp37
(I1
(I13
tp38
g13
I00
S'\xc3\xa9A\xf7\xff\x19Y@<o\xff\xf6\xceN\\@\xba\xd7\xef6\xae\x83_@\xe5\xd0\xfb\xb6\xfdqd@#\xfe[\xa1\x07\xfde@\xc1\\\'yK\xff`@6P\xe7#\x8f\x88^@RZ\xb7\x90pgX@%pM-:\xe6U@\x83\x9aS:B\xa1U@\xb0J\xe1\xd3`\xa4U@\xaa\xc1\xf7\xb5\x8c\x18U@"\x90\xfb"\x97\x08G@'
p39
tp40
bsS'rel_yaw_stats'
p41
(dp42
g20
F33.84703243920864
sg21
F46.06711232455588
sg22
F175.90718143431977
sg23
F114.79767428825525
sg24
F100.40624791538634
sg25
I13
sg26
F109.69450495376465
ssS'rel_rot_deg_per_m_stats'
p43
(dp44
g20
F0.1458765850470772
sg21
F0.19879581360461634
sg22
F0.7582302593683421
sg23
F0.4950769284987134
sg24
F0.43303758914614454
sg25
I13
sg26
F0.47309743929419334
ssS'rel_trans'
p45
g3
(g4
(I0
tp46
g6
tp47
Rp48
(I1
(I13
tp49
g13
I00
S'\x04a\x80\x88\xf14c@\xdd#J\xe8!\x01a@%\x9c\xe4\xe8%*`@\x8fX\xca\x8a\xf4\x1f`@\xeb\x99$\x05\x15\xe0`@d+<C\xf7\xfcd@\xa6\x8e\xba\x87\xb4\xdef@\x97\xc7\xd7\x93\x10\xfbi@\x16\xda\xb6\x14\xe1\xf8h@\x0b\xa3B\xe0\xc6\x8ag@\xf9\xcf\xbcl\xadTe@o\x8b%\xb99\x0ce@\x07\x139\xc86lf@'
p50
tp51
bsS'rel_rot'
p52
g3
(g4
(I0
tp53
g6
tp54
Rp55
(I1
(I13
tp56
g13
I00
S'\x8cn\xf2\xa5#\x1aY@z\x18i[\xa0O\\@\xf8w/k{\x8a_@\xd9\xf0\xf9]\x99pd@\n\xb43|\xf2\xf9e@\xa7nLF\xf3\xfe`@z\xdf(I\x14\x88^@\x10CF\x07+hX@\xd1<mp(\xe7U@\xd83\xd7\xd1n\xa1U@\xfe\x04b9\xc6\xa4U@\x1b\x18[\xfa\x11\x19U@P\xe6\xba\xec!\x0cG@'
p57
tp58
bsS'rel_trans_stats'
p59
(dp60
g20
F25.730927817731054
sg21
F128.9986013366765
sg22
F207.84577362198317
sg23
F167.24072641943386
sg24
F168.38204629261915
sg25
I13
sg26
F165.24944758436752
ssS'rel_gravity_stats'
p61
(dp62
g20
F1.633863370145316
sg21
F0.5587426443278616
sg22
F5.765357223144034
sg23
F3.3491758418662165
sg24
F2.2907394682459463
sg25
I13
sg26
F2.9236055321191454
ssS'rel_trans_perc_stats'
p63
(dp64
g20
F11.097135385229244
sg21
F55.63401963888235
sg22
F89.63892423426194
sg23
F72.12693596387365
sg24
F72.61916000026703
sg25
I13
sg26
F71.26814490204318
ssS'rel_rot_deg_per_m'
p65
g3
(g4
(I0
tp66
g6
tp67
Rp68
(I1
(I13
tp69
g13
I00
S"j\x91\xd4J\xe3\xb6\xdb?{\xca\xe4Y\xddA\xdf?g\x13\xcbdbi\xe1?1Q\x19\xbf#\x91\xe6?Xc\xda\x1alC\xe8?\xd7|z\x87\xbd\xc3\xe2?/1%\xc1\xbc\xda\xe0?s{\x87Qe\xf2\xda?\x84\x13\xfe}\xad.\xd8?D8HQ\xb2\xe1\xd7?\xbd,\xc5\xbdb\xe5\xd7?\x98\xb3\xa0\x9e$K\xd7?\xa6\xbb\x01'$r\xc9?"
p70
tp71
bssF463.74
(dp72
g2
g3
(g4
(I0
tp73
g6
tp74
Rp75
(I1
(I0
tp76
g13
I00
S''
p77
tp78
bsg18
(dp79
g20
I0
sg21
I0
sg22
I0
sg23
I0
sg24
I0
sg25
I0
sg26
I0
ssg27
g3
(g4
(I0
tp80
g6
tp81
Rp82
(I1
(I0
tp83
g13
I00
g77
tp84
bsg34
g3
(g4
(I0
tp85
g6
tp86
Rp87
(I1
(I0
tp88
g13
I00
g77
tp89
bsg41
(dp90
g20
I0
sg21
I0
sg22
I0
sg23
I0
sg24
I0
sg25
I0
sg26
I0
ssg43
(dp91
g20
I0
sg21
I0
sg22
I0
sg23
I0
sg24
I0
sg25
I0
sg26
I0
ssg45
g3
(g4
(I0
tp92
g6
tp93
Rp94
(I1
(I0
tp95
g13
I00
g77
tp96
bsg52
g3
(g4
(I0
tp97
g6
tp98
Rp99
(I1
(I0
tp100
g13
I00
g77
tp101
bsg59
(dp102
g20
I0
sg21
I0
sg22
I0
sg23
I0
sg24
I0
sg25
I0
sg26
I0
ssg61
(dp103
g20
I0
sg21
I0
sg22
I0
sg23
I0
sg24
I0
sg25
I0
sg26
I0
ssg63
(dp104
g20
I0
sg21
I0
sg22
I0
sg23
I0
sg24
I0
sg25
I0
sg26
I0
ssg65
g3
(g4
(I0
tp105
g6
tp106
Rp107
(I1
(I0
tp108
g13
I00
g77
tp109
bssF115.93
(dp110
g2
g3
(g4
(I0
tp111
g6
tp112
Rp113
(I1
(I0
tp114
g13
I00
g77
tp115
bsg18
(dp116
g20
I0
sg21
I0
sg22
I0
sg23
I0
sg24
I0
sg25
I0
sg26
I0
ssg27
g3
(g4
(I0
tp117
g6
tp118
Rp119
(I1
(I0
tp120
g13
I00
g77
tp121
bsg34
g3
(g4
(I0
tp122
g6
tp123
Rp124
(I1
(I0
tp125
g13
I00
g77
tp126
bsg41
(dp127
g20
I0
sg21
I0
sg22
I0
sg23
I0
sg24
I0
sg25
I0
sg26
I0
ssg43
(dp128
g20
I0
sg21
I0
sg22
I0
sg23
I0
sg24
I0
sg25
I0
sg26
I0
ssg45
g3
(g4
(I0
tp129
g6
tp130
Rp131
(I1
(I0
tp132
g13
I00
g77
tp133
bsg52
g3
(g4
(I0
tp134
g6
tp135
Rp136
(I1
(I0
tp137
g13
I00
g77
tp138
bsg59
(dp139
g20
I0
sg21
I0
sg22
I0
sg23
I0
sg24
I0
sg25
I0
sg26
I0
ssg61
(dp140
g20
I0
sg21
I0
sg22
I0
sg23
I0
sg24
I0
sg25
I0
sg26
I0
ssg63
(dp141
g20
I0
sg21
I0
sg22
I0
sg23
I0
sg24
I0
sg25
I0
sg26
I0
ssg65
g3
(g4
(I0
tp142
g6
tp143
Rp144
(I1
(I0
tp145
g13
I00
g77
tp146
bssF347.8
(dp147
g2
g3
(g4
(I0
tp148
g6
tp149
Rp150
(I1
(I0
tp151
g13
I00
g77
tp152
bsg18
(dp153
g20
I0
sg21
I0
sg22
I0
sg23
I0
sg24
I0
sg25
I0
sg26
I0
ssg27
g3
(g4
(I0
tp154
g6
tp155
Rp156
(I1
(I0
tp157
g13
I00
g77
tp158
bsg34
g3
(g4
(I0
tp159
g6
tp160
Rp161
(I1
(I0
tp162
g13
I00
g77
tp163
bsg41
(dp164
g20
I0
sg21
I0
sg22
I0
sg23
I0
sg24
I0
sg25
I0
sg26
I0
ssg43
(dp165
g20
I0
sg21
I0
sg22
I0
sg23
I0
sg24
I0
sg25
I0
sg26
I0
ssg45
g3
(g4
(I0
tp166
g6
tp167
Rp168
(I1
(I0
tp169
g13
I00
g77
tp170
bsg52
g3
(g4
(I0
tp171
g6
tp172
Rp173
(I1
(I0
tp174
g13
I00
g77
tp175
bsg59
(dp176
g20
I0
sg21
I0
sg22
I0
sg23
I0
sg24
I0
sg25
I0
sg26
I0
ssg61
(dp177
g20
I0
sg21
I0
sg22
I0
sg23
I0
sg24
I0
sg25
I0
sg26
I0
ssg63
(dp178
g20
I0
sg21
I0
sg22
I0
sg23
I0
sg24
I0
sg25
I0
sg26
I0
ssg65
g3
(g4
(I0
tp179
g6
tp180
Rp181
(I1
(I0
tp182
g13
I00
g77
tp183
bssF579.67
(dp184
g2
g3
(g4
(I0
tp185
g6
tp186
Rp187
(I1
(I0
tp188
g13
I00
g77
tp189
bsg18
(dp190
g20
I0
sg21
I0
sg22
I0
sg23
I0
sg24
I0
sg25
I0
sg26
I0
ssg27
g3
(g4
(I0
tp191
g6
tp192
Rp193
(I1
(I0
tp194
g13
I00
g77
tp195
bsg34
g3
(g4
(I0
tp196
g6
tp197
Rp198
(I1
(I0
tp199
g13
I00
g77
tp200
bsg41
(dp201
g20
I0
sg21
I0
sg22
I0
sg23
I0
sg24
I0
sg25
I0
sg26
I0
ssg43
(dp202
g20
I0
sg21
I0
sg22
I0
sg23
I0
sg24
I0
sg25
I0
sg26
I0
ssg45
g3
(g4
(I0
tp203
g6
tp204
Rp205
(I1
(I0
tp206
g13
I00
g77
tp207
bsg52
g3
(g4
(I0
tp208
g6
tp209
Rp210
(I1
(I0
tp211
g13
I00
g77
tp212
bsg59
(dp213
g20
I0
sg21
I0
sg22
I0
sg23
I0
sg24
I0
sg25
I0
sg26
I0
ssg61
(dp214
g20
I0
sg21
I0
sg22
I0
sg23
I0
sg24
I0
sg25
I0
sg26
I0
ssg63
(dp215
g20
I0
sg21
I0
sg22
I0
sg23
I0
sg24
I0
sg25
I0
sg26
I0
ssg65
g3
(g4
(I0
tp216
g6
tp217
Rp218
(I1
(I0
tp219
g13
I00
g77
tp220
bss.